; ModuleID = 'source-C-CXX/52/147.c'
source_filename = "source-C-CXX/52/147.c"
target datalayout = "e-m:e-p270:32:32-p271:32:32-p272:64:64-i64:64-f80:128-n8:16:32:64-S128"
target triple = "x86_64-pc-linux-gnu"

@.str = private unnamed_addr constant [3 x i8] c"%d\00", align 1
@.str.1 = private unnamed_addr constant [4 x i8] c",%d\00", align 1

; Function Attrs: nofree nounwind sspstrong uwtable
define dso_local i32 @main() local_unnamed_addr #0 {
  %1 = alloca i32, align 4
  %2 = alloca [100 x i32], align 16
  %3 = alloca i32, align 4
  %4 = bitcast i32* %1 to i8*
  call void @llvm.lifetime.start.p0i8(i64 4, i8* nonnull %4) #4
  %5 = bitcast [100 x i32]* %2 to i8*
  call void @llvm.lifetime.start.p0i8(i64 400, i8* nonnull %5) #4
  call void @llvm.memset.p0i8.i64(i8* noundef nonnull align 16 dereferenceable(400) %5, i8 0, i64 400, i1 false)
  %6 = bitcast i32* %3 to i8*
  call void @llvm.lifetime.start.p0i8(i64 4, i8* nonnull %6) #4
  %7 = getelementptr inbounds [100 x i32], [100 x i32]* %2, i64 0, i64 0
  %8 = call i32 (i8*, ...) @__isoc99_scanf(i8* getelementptr inbounds ([3 x i8], [3 x i8]* @.str, i64 0, i64 0), i32* nonnull %1)
  %9 = load i32, i32* %1, align 4, !tbaa !5
  %10 = icmp sgt i32 %9, 0
  br i1 %10, label %13, label %11

11:                                               ; preds = %0
  %12 = call i32 (i8*, ...) @printf(i8* nonnull dereferenceable(1) getelementptr inbounds ([3 x i8], [3 x i8]* @.str, i64 0, i64 0), i32 0)
  br label %94

13:                                               ; preds = %0, %75
  %14 = phi i32 [ %76, %75 ], [ 0, %0 ]
  %15 = phi i32 [ %77, %75 ], [ 0, %0 ]
  %16 = call i32 (i8*, ...) @__isoc99_scanf(i8* getelementptr inbounds ([3 x i8], [3 x i8]* @.str, i64 0, i64 0), i32* nonnull %3)
  %17 = load i32, i32* %3, align 4
  %18 = icmp sgt i32 %14, 0
  br i1 %18, label %19, label %71

19:                                               ; preds = %13
  %20 = zext i32 %14 to i64
  %21 = add nsw i64 %20, -1
  %22 = and i64 %20, 3
  %23 = icmp ult i64 %21, 3
  br i1 %23, label %52, label %24

24:                                               ; preds = %19
  %25 = and i64 %20, 4294967292
  br label %26

26:                                               ; preds = %26, %24
  %27 = phi i64 [ 0, %24 ], [ %49, %26 ]
  %28 = phi i32 [ 1, %24 ], [ %48, %26 ]
  %29 = phi i64 [ %25, %24 ], [ %50, %26 ]
  %30 = getelementptr inbounds [100 x i32], [100 x i32]* %2, i64 0, i64 %27
  %31 = load i32, i32* %30, align 16, !tbaa !5
  %32 = icmp eq i32 %31, %17
  %33 = or i64 %27, 1
  %34 = getelementptr inbounds [100 x i32], [100 x i32]* %2, i64 0, i64 %33
  %35 = load i32, i32* %34, align 4, !tbaa !5
  %36 = icmp eq i32 %35, %17
  %37 = or i64 %27, 2
  %38 = getelementptr inbounds [100 x i32], [100 x i32]* %2, i64 0, i64 %37
  %39 = load i32, i32* %38, align 8, !tbaa !5
  %40 = icmp eq i32 %39, %17
  %41 = or i64 %27, 3
  %42 = getelementptr inbounds [100 x i32], [100 x i32]* %2, i64 0, i64 %41
  %43 = load i32, i32* %42, align 4, !tbaa !5
  %44 = icmp eq i32 %43, %17
  %45 = select i1 %44, i1 true, i1 %40
  %46 = select i1 %45, i1 true, i1 %36
  %47 = select i1 %46, i1 true, i1 %32
  %48 = select i1 %47, i32 0, i32 %28
  %49 = add nuw nsw i64 %27, 4
  %50 = add i64 %29, -4
  %51 = icmp eq i64 %50, 0
  br i1 %51, label %52, label %26, !llvm.loop !9

52:                                               ; preds = %26, %19
  %53 = phi i32 [ undef, %19 ], [ %48, %26 ]
  %54 = phi i64 [ 0, %19 ], [ %49, %26 ]
  %55 = phi i32 [ 1, %19 ], [ %48, %26 ]
  %56 = icmp eq i64 %22, 0
  br i1 %56, label %68, label %57

57:                                               ; preds = %52, %57
  %58 = phi i64 [ %65, %57 ], [ %54, %52 ]
  %59 = phi i32 [ %64, %57 ], [ %55, %52 ]
  %60 = phi i64 [ %66, %57 ], [ %22, %52 ]
  %61 = getelementptr inbounds [100 x i32], [100 x i32]* %2, i64 0, i64 %58
  %62 = load i32, i32* %61, align 4, !tbaa !5
  %63 = icmp eq i32 %62, %17
  %64 = select i1 %63, i32 0, i32 %59
  %65 = add nuw nsw i64 %58, 1
  %66 = add i64 %60, -1
  %67 = icmp eq i64 %66, 0
  br i1 %67, label %68, label %57, !llvm.loop !11

68:                                               ; preds = %57, %52
  %69 = phi i32 [ %53, %52 ], [ %64, %57 ]
  %70 = icmp eq i32 %69, 0
  br i1 %70, label %75, label %71

71:                                               ; preds = %13, %68
  %72 = sext i32 %14 to i64
  %73 = getelementptr inbounds [100 x i32], [100 x i32]* %2, i64 0, i64 %72
  store i32 %17, i32* %73, align 4, !tbaa !5
  %74 = add nsw i32 %14, 1
  br label %75

75:                                               ; preds = %68, %71
  %76 = phi i32 [ %74, %71 ], [ %14, %68 ]
  %77 = add nuw nsw i32 %15, 1
  %78 = load i32, i32* %1, align 4, !tbaa !5
  %79 = icmp slt i32 %77, %78
  br i1 %79, label %13, label %80, !llvm.loop !13

80:                                               ; preds = %75
  %81 = load i32, i32* %7, align 16, !tbaa !5
  %82 = getelementptr inbounds [100 x i32], [100 x i32]* %2, i64 0, i64 1
  %83 = load i32, i32* %82, align 4, !tbaa !5
  %84 = call i32 (i8*, ...) @printf(i8* nonnull dereferenceable(1) getelementptr inbounds ([3 x i8], [3 x i8]* @.str, i64 0, i64 0), i32 %81)
  %85 = icmp eq i32 %83, 0
  br i1 %85, label %94, label %86

86:                                               ; preds = %80, %86
  %87 = phi i64 [ %90, %86 ], [ 1, %80 ]
  %88 = phi i32 [ %92, %86 ], [ %83, %80 ]
  %89 = call i32 (i8*, ...) @printf(i8* nonnull dereferenceable(1) getelementptr inbounds ([4 x i8], [4 x i8]* @.str.1, i64 0, i64 0), i32 %88)
  %90 = add nuw i64 %87, 1
  %91 = getelementptr inbounds [100 x i32], [100 x i32]* %2, i64 0, i64 %90
  %92 = load i32, i32* %91, align 4, !tbaa !5
  %93 = icmp eq i32 %92, 0
  br i1 %93, label %94, label %86, !llvm.loop !14

94:                                               ; preds = %86, %11, %80
  call void @llvm.lifetime.end.p0i8(i64 4, i8* nonnull %6) #4
  call void @llvm.lifetime.end.p0i8(i64 400, i8* nonnull %5) #4
  call void @llvm.lifetime.end.p0i8(i64 4, i8* nonnull %4) #4
  ret i32 0
}

; Function Attrs: argmemonly mustprogress nofree nosync nounwind willreturn
declare void @llvm.lifetime.start.p0i8(i64 immarg, i8* nocapture) #1

; Function Attrs: argmemonly mustprogress nofree nounwind willreturn writeonly
declare void @llvm.memset.p0i8.i64(i8* nocapture writeonly, i8, i64, i1 immarg) #2

; Function Attrs: nofree nounwind
declare noundef i32 @__isoc99_scanf(i8* nocapture noundef readonly, ...) local_unnamed_addr #3

; Function Attrs: nofree nounwind
declare noundef i32 @printf(i8* nocapture noundef readonly, ...) local_unnamed_addr #3

; Function Attrs: argmemonly mustprogress nofree nosync nounwind willreturn
declare void @llvm.lifetime.end.p0i8(i64 immarg, i8* nocapture) #1


!llvm.module.flags = !{!0, !1, !2, !3}
!llvm.ident = !{!4}

!0 = !{i32 1, !"wchar_size", i32 4}
!1 = !{i32 7, !"PIC Level", i32 2}
!2 = !{i32 7, !"PIE Level", i32 2}
!3 = !{i32 7, !"uwtable", i32 1}
!4 = !{!"clang version 13.0.0"}
!5 = !{!6, !6, i64 0}
!6 = !{!"int", !7, i64 0}
!7 = !{!"omnipotent char", !8, i64 0}
!8 = !{!"Simple C/C++ TBAA"}
!9 = distinct !{!9, !10}
!10 = !{!"llvm.loop.mustprogress"}
!11 = distinct !{!11, !12}
!12 = !{!"llvm.loop.unroll.disable"}
!13 = distinct !{!13, !10}
!14 = distinct !{!14, !10}
